; Function Attrs: mustprogress uwtable
define ptr @_ZNK32pxrInternal_v0_24__pxrReserved__8TsSpline4findERKd(ptr nocapture noundef nonnull readonly align 8 dereferenceable(16) %0, ptr nocapture noundef nonnull readonly align 8 dereferenceable(8) %1) local_unnamed_addr #3 align 2 {
  %3 = load ptr, ptr %0, align 8
  %4 = tail call noundef nonnull align 8 dereferenceable(24) ptr @_ZNK32pxrInternal_v0_24__pxrReserved__18TsSpline_KeyFrames12GetKeyFramesEv(ptr noundef nonnull align 8 dereferenceable(136) %3)
  %5 = load double, ptr %1, align 8
  %6 = tail call ptr @_ZNK32pxrInternal_v0_24__pxrReserved__13TsKeyFrameMap11lower_boundEd(ptr noundef nonnull align 8 dereferenceable(24) %4, double noundef %5)
  %7 = getelementptr inbounds nuw i8, ptr %4, i64 8
  %8 = load ptr, ptr %7, align 8
  %.not.i = icmp eq ptr %6, %8
  br i1 %.not.i, label %.critedge.i, label %9

9:                                                ; preds = %2
  %10 = getelementptr inbounds nuw i8, ptr %6, i64 8
  %11 = load double, ptr %10, align 8
  %12 = load double, ptr %1, align 8
  %13 = fcmp oeq double %11, %12
  br i1 %13, label %_ZNK32pxrInternal_v0_24__pxrReserved__13TsKeyFrameMap4findERKd.exit, label %.critedge.i

.critedge.i:                                      ; preds = %9, %2
  br label %_ZNK32pxrInternal_v0_24__pxrReserved__13TsKeyFrameMap4findERKd.exit

_ZNK32pxrInternal_v0_24__pxrReserved__13TsKeyFrameMap4findERKd.exit: ; preds = %9, %.critedge.i
  %.sroa.0.0.i = phi ptr [ %8, %.critedge.i ], [ %6, %9 ]
  ret ptr %.sroa.0.0.i
}